target datalayout = "e-m:e-p270:32:32-p271:32:32-p272:64:64-i64:64-i128:128-f80:128-n8:16:32:64-S128"
target triple = "x86_64-pc-linux-gnu"

%struct.AVProbeData = type { ptr, ptr, i32, ptr }

@.str.3 = private unnamed_addr constant [12 x i8] c"Sega Stream\00", align 1

; Function Attrs: nounwind uwtable
define internal i32 @dcstr_probe(ptr noundef %0) #0 {
  %2 = alloca i32, align 4
  %3 = alloca ptr, align 8
  store ptr %0, ptr %3, align 8, !tbaa !4
  %4 = load ptr, ptr %3, align 8, !tbaa !4
  %5 = getelementptr inbounds nuw %struct.AVProbeData, ptr %4, i32 0, i32 2
  %6 = load i32, ptr %5, align 8, !tbaa !9
  %7 = icmp slt i32 %6, 224
  br i1 %7, label %15, label %8

8:                                                ; preds = %1
  %9 = load ptr, ptr %3, align 8, !tbaa !4
  %10 = getelementptr inbounds nuw %struct.AVProbeData, ptr %9, i32 0, i32 1
  %11 = load ptr, ptr %10, align 8, !tbaa !13
  %12 = getelementptr inbounds i8, ptr %11, i64 213
  %13 = call i32 @memcmp(ptr noundef %12, ptr noundef @.str.3, i64 noundef 11) #5
  %14 = icmp ne i32 %13, 0
  br i1 %14, label %15, label %16

15:                                               ; preds = %8, %1
  store i32 0, ptr %2, align 4
  br label %17

16:                                               ; preds = %8
  store i32 100, ptr %2, align 4
  br label %17

17:                                               ; preds = %16, %15
  %18 = load i32, ptr %2, align 4
  ret i32 %18
}