; Function Attrs: mustprogress nofree norecurse nounwind willreturn memory(read, inaccessiblemem: none) uwtable
define internal range(i32 0, 101) i32 @dcstr_probe(ptr noundef readonly captures(none) %0) #0 {
  %2 = getelementptr inbounds nuw i8, ptr %0, i64 16
  %3 = load i32, ptr %2, align 8, !tbaa !4
  %4 = icmp slt i32 %3, 224
  br i1 %4, label %9, label %5

5:                                                ; preds = %1
  %6 = getelementptr inbounds nuw i8, ptr %0, i64 8
  %7 = load ptr, ptr %6, align 8, !tbaa !11
  %8 = getelementptr inbounds nuw i8, ptr %7, i64 213
  %bcmp = tail call i32 @bcmp(ptr noundef nonnull dereferenceable(11) %8, ptr noundef nonnull dereferenceable(11) @.str.3, i64 11)
  %.not = icmp eq i32 %bcmp, 0
  %spec.select = select i1 %.not, i32 100, i32 0
  br label %9

9:                                                ; preds = %5, %1
  %.0 = phi i32 [ 0, %1 ], [ %spec.select, %5 ]
  ret i32 %.0
}